target datalayout = "e-m:e-p270:32:32-p271:32:32-p272:64:64-i64:64-i128:128-f80:128-n8:16:32:64-S128"
target triple = "x86_64-pc-linux-gnu"

%struct.lean_object = type { i32, i32 }
%struct.lean_array_object = type { %struct.lean_object, i64, i64, [0 x ptr] }

; Function Attrs: inlinehint nounwind uwtable
define internal zeroext i1 @lean_is_st(ptr noundef %0) #0 {
  %2 = alloca ptr, align 8
  store ptr %0, ptr %2, align 8, !tbaa !8
  %3 = load ptr, ptr %2, align 8, !tbaa !8
  %4 = getelementptr inbounds nuw %struct.lean_object, ptr %3, i32 0, i32 0
  %5 = load i32, ptr %4, align 4, !tbaa !11
  %6 = icmp sgt i32 %5, 0
  ret i1 %6
}

; Function Attrs: inlinehint nounwind uwtable
define internal void @lean_inc_ref(ptr noundef %0) #0 {
  %2 = alloca ptr, align 8
  store ptr %0, ptr %2, align 8, !tbaa !8
  %3 = load ptr, ptr %2, align 8, !tbaa !8
  %4 = call zeroext i1 @lean_is_st(ptr noundef %3)
  %5 = zext i1 %4 to i64
  %6 = call i64 @llvm.expect.i64(i64 %5, i64 1)
  %7 = icmp ne i64 %6, 0
  br i1 %7, label %8, label %13

8:                                                ; preds = %1
  %9 = load ptr, ptr %2, align 8, !tbaa !8
  %10 = getelementptr inbounds nuw %struct.lean_object, ptr %9, i32 0, i32 0
  %11 = load i32, ptr %10, align 4, !tbaa !11
  %12 = add i32 %11, 1
  store i32 %12, ptr %10, align 4, !tbaa !11
  br label %21

13:                                               ; preds = %1
  %14 = load ptr, ptr %2, align 8, !tbaa !8
  %15 = getelementptr inbounds nuw %struct.lean_object, ptr %14, i32 0, i32 0
  %16 = load i32, ptr %15, align 4, !tbaa !11
  %17 = icmp ne i32 %16, 0
  br i1 %17, label %18, label %20

18:                                               ; preds = %13
  %19 = load ptr, ptr %2, align 8, !tbaa !8
  call void @lean_inc_ref_cold(ptr noundef %19)
  br label %20

20:                                               ; preds = %18, %13
  br label %21

21:                                               ; preds = %20, %8
  ret void
}

; Function Attrs: alwaysinline nounwind uwtable
define internal void @lean_inc(ptr noundef %0) #1 {
  %2 = alloca ptr, align 8
  store ptr %0, ptr %2, align 8, !tbaa !8
  %3 = load ptr, ptr %2, align 8, !tbaa !8
  %4 = call zeroext i1 @lean_is_scalar(ptr noundef %3)
  br i1 %4, label %7, label %5

5:                                                ; preds = %1
  %6 = load ptr, ptr %2, align 8, !tbaa !8
  call void @lean_inc_ref(ptr noundef %6)
  br label %7

7:                                                ; preds = %5, %1
  ret void
}

; Function Attrs: inlinehint nounwind uwtable
define internal ptr @lean_array_get_core(ptr noundef %0, i64 noundef %1) #0 {
  %3 = alloca ptr, align 8
  %4 = alloca i64, align 8
  store ptr %0, ptr %3, align 8, !tbaa !8
  store i64 %1, ptr %4, align 8, !tbaa !4
  %5 = load ptr, ptr %3, align 8, !tbaa !8
  %6 = call ptr @lean_to_array(ptr noundef %5)
  %7 = getelementptr inbounds nuw %struct.lean_array_object, ptr %6, i32 0, i32 3
  %8 = load i64, ptr %4, align 8, !tbaa !4
  %9 = getelementptr inbounds nuw [0 x ptr], ptr %7, i64 0, i64 %8
  %10 = load ptr, ptr %9, align 8, !tbaa !8
  ret ptr %10
}

; Function Attrs: inlinehint nounwind uwtable
define internal ptr @lean_to_array(ptr noundef %0) #0 {
  %2 = alloca ptr, align 8
  store ptr %0, ptr %2, align 8, !tbaa !8
  %3 = load ptr, ptr %2, align 8, !tbaa !8
  ret ptr %3
}

; Function Attrs: inlinehint nounwind uwtable
define internal i64 @lean_usize_add(i64 noundef %0, i64 noundef %1) #0 {
  %3 = alloca i64, align 8
  %4 = alloca i64, align 8
  store i64 %0, ptr %3, align 8, !tbaa !4
  store i64 %1, ptr %4, align 8, !tbaa !4
  %5 = load i64, ptr %3, align 8, !tbaa !4
  %6 = load i64, ptr %4, align 8, !tbaa !4
  %7 = add i64 %5, %6
  ret i64 %7
}

; Function Attrs: inlinehint nounwind uwtable
define internal ptr @lean_array_uget(ptr noundef %0, i64 noundef %1) #0 {
  %3 = alloca ptr, align 8
  %4 = alloca i64, align 8
  %5 = alloca ptr, align 8
  store ptr %0, ptr %3, align 8, !tbaa !8
  store i64 %1, ptr %4, align 8, !tbaa !4
  call void @llvm.lifetime.start.p0(i64 8, ptr %5) #7
  %6 = load ptr, ptr %3, align 8, !tbaa !8
  %7 = load i64, ptr %4, align 8, !tbaa !4
  %8 = call ptr @lean_array_get_core(ptr noundef %6, i64 noundef %7)
  store ptr %8, ptr %5, align 8, !tbaa !8
  %9 = load ptr, ptr %5, align 8, !tbaa !8
  call void @lean_inc(ptr noundef %9)
  %10 = load ptr, ptr %5, align 8, !tbaa !8
  call void @llvm.lifetime.end.p0(i64 8, ptr %5) #7
  ret ptr %10
}

; Function Attrs: inlinehint nounwind uwtable
define internal zeroext i8 @lean_usize_dec_eq(i64 noundef %0, i64 noundef %1) #0 {
  %3 = alloca i64, align 8
  %4 = alloca i64, align 8
  store i64 %0, ptr %3, align 8, !tbaa !4
  store i64 %1, ptr %4, align 8, !tbaa !4
  %5 = load i64, ptr %3, align 8, !tbaa !4
  %6 = load i64, ptr %4, align 8, !tbaa !4
  %7 = icmp eq i64 %5, %6
  %8 = zext i1 %7 to i32
  %9 = trunc i32 %8 to i8
  ret i8 %9
}

; Function Attrs: inlinehint nounwind uwtable
define internal i64 @lean_unbox(ptr noundef %0) #0 {
  %2 = alloca ptr, align 8
  store ptr %0, ptr %2, align 8, !tbaa !8
  %3 = load ptr, ptr %2, align 8, !tbaa !8
  %4 = ptrtoint ptr %3 to i64
  %5 = lshr i64 %4, 1
  ret i64 %5
}

; Function Attrs: alwaysinline nounwind uwtable
define internal void @lean_dec_ref(ptr noundef %0) #1 {
  %2 = alloca ptr, align 8
  store ptr %0, ptr %2, align 8, !tbaa !8
  %3 = load ptr, ptr %2, align 8, !tbaa !8
  %4 = getelementptr inbounds nuw %struct.lean_object, ptr %3, i32 0, i32 0
  %5 = load i32, ptr %4, align 4, !tbaa !11
  %6 = icmp sgt i32 %5, 1
  %7 = zext i1 %6 to i32
  %8 = sext i32 %7 to i64
  %9 = call i64 @llvm.expect.i64(i64 %8, i64 1)
  %10 = icmp ne i64 %9, 0
  br i1 %10, label %11, label %16

11:                                               ; preds = %1
  %12 = load ptr, ptr %2, align 8, !tbaa !8
  %13 = getelementptr inbounds nuw %struct.lean_object, ptr %12, i32 0, i32 0
  %14 = load i32, ptr %13, align 4, !tbaa !11
  %15 = add i32 %14, -1
  store i32 %15, ptr %13, align 4, !tbaa !11
  br label %24

16:                                               ; preds = %1
  %17 = load ptr, ptr %2, align 8, !tbaa !8
  %18 = getelementptr inbounds nuw %struct.lean_object, ptr %17, i32 0, i32 0
  %19 = load i32, ptr %18, align 4, !tbaa !11
  %20 = icmp ne i32 %19, 0
  br i1 %20, label %21, label %23

21:                                               ; preds = %16
  %22 = load ptr, ptr %2, align 8, !tbaa !8
  call void @lean_dec_ref_cold(ptr noundef %22)
  br label %23

23:                                               ; preds = %21, %16
  br label %24

24:                                               ; preds = %23, %11
  ret void
}

; Function Attrs: alwaysinline nounwind uwtable
define internal zeroext i1 @lean_is_scalar(ptr noundef %0) #1 {
  %2 = alloca ptr, align 8
  store ptr %0, ptr %2, align 8, !tbaa !8
  %3 = load ptr, ptr %2, align 8, !tbaa !8
  %4 = ptrtoint ptr %3 to i64
  %5 = and i64 %4, 1
  %6 = icmp eq i64 %5, 1
  ret i1 %6
}

; Function Attrs: alwaysinline nounwind uwtable
define internal zeroext i1 @lean_nat_lt(ptr noundef %0, ptr noundef %1) #1 {
  %3 = alloca i1, align 1
  %4 = alloca ptr, align 8
  %5 = alloca ptr, align 8
  store ptr %0, ptr %4, align 8, !tbaa !8
  store ptr %1, ptr %5, align 8, !tbaa !8
  %6 = load ptr, ptr %4, align 8, !tbaa !8
  %7 = call zeroext i1 @lean_is_scalar(ptr noundef %6)
  br i1 %7, label %8, label %11

8:                                                ; preds = %2
  %9 = load ptr, ptr %5, align 8, !tbaa !8
  %10 = call zeroext i1 @lean_is_scalar(ptr noundef %9)
  br label %11

11:                                               ; preds = %8, %2
  %12 = phi i1 [ false, %2 ], [ %10, %8 ]
  %13 = zext i1 %12 to i32
  %14 = sext i32 %13 to i64
  %15 = call i64 @llvm.expect.i64(i64 %14, i64 1)
  %16 = icmp ne i64 %15, 0
  br i1 %16, label %17, label %21

17:                                               ; preds = %11
  %18 = load ptr, ptr %4, align 8, !tbaa !8
  %19 = load ptr, ptr %5, align 8, !tbaa !8
  %20 = icmp ult ptr %18, %19
  store i1 %20, ptr %3, align 1
  br label %25

21:                                               ; preds = %11
  %22 = load ptr, ptr %4, align 8, !tbaa !8
  %23 = load ptr, ptr %5, align 8, !tbaa !8
  %24 = call zeroext i1 @lean_nat_big_lt(ptr noundef %22, ptr noundef %23)
  store i1 %24, ptr %3, align 1
  br label %25

25:                                               ; preds = %21, %17
  %26 = load i1, ptr %3, align 1
  ret i1 %26
}

; Function Attrs: inlinehint nounwind uwtable
define internal ptr @lean_usize_to_nat(i64 noundef %0) #0 {
  %2 = alloca ptr, align 8
  %3 = alloca i64, align 8
  store i64 %0, ptr %3, align 8, !tbaa !4
  %4 = load i64, ptr %3, align 8, !tbaa !4
  %5 = icmp ule i64 %4, 9223372036854775807
  %6 = zext i1 %5 to i32
  %7 = sext i32 %6 to i64
  %8 = call i64 @llvm.expect.i64(i64 %7, i64 1)
  %9 = icmp ne i64 %8, 0
  br i1 %9, label %10, label %13

10:                                               ; preds = %1
  %11 = load i64, ptr %3, align 8, !tbaa !4
  %12 = call ptr @lean_box(i64 noundef %11)
  store ptr %12, ptr %2, align 8
  br label %16

13:                                               ; preds = %1
  %14 = load i64, ptr %3, align 8, !tbaa !4
  %15 = call ptr @lean_big_usize_to_nat(i64 noundef %14)
  store ptr %15, ptr %2, align 8
  br label %16

16:                                               ; preds = %13, %10
  %17 = load ptr, ptr %2, align 8
  ret ptr %17
}

; Function Attrs: inlinehint nounwind uwtable
define internal ptr @lean_box(i64 noundef %0) #0 {
  %2 = alloca i64, align 8
  store i64 %0, ptr %2, align 8, !tbaa !4
  %3 = load i64, ptr %2, align 8, !tbaa !4
  %4 = shl i64 %3, 1
  %5 = or i64 %4, 1
  %6 = inttoptr i64 %5 to ptr
  ret ptr %6
}

; Function Attrs: inlinehint nounwind uwtable
define internal i64 @lean_array_size(ptr noundef %0) #0 {
  %2 = alloca ptr, align 8
  store ptr %0, ptr %2, align 8, !tbaa !8
  %3 = load ptr, ptr %2, align 8, !tbaa !8
  %4 = call ptr @lean_to_array(ptr noundef %3)
  %5 = getelementptr inbounds nuw %struct.lean_array_object, ptr %4, i32 0, i32 1
  %6 = load i64, ptr %5, align 8, !tbaa !4
  ret i64 %6
}

; Function Attrs: nounwind uwtable
define zeroext i8 @l_Array_anyMUnsafe_any___at_Lean_registerInternalExceptionId___spec__2(ptr noundef %0, ptr noundef %1, i64 noundef %2, i64 noundef %3) #2 {
  %5 = alloca i8, align 1
  %6 = alloca ptr, align 8
  %7 = alloca ptr, align 8
  %8 = alloca i64, align 8
  %9 = alloca i64, align 8
  %10 = alloca i8, align 1
  %11 = alloca ptr, align 8
  %12 = alloca i8, align 1
  %13 = alloca i64, align 8
  %14 = alloca i64, align 8
  %15 = alloca i32, align 4
  %16 = alloca i8, align 1
  %17 = alloca i8, align 1
  store ptr %0, ptr %6, align 8, !tbaa !8
  store ptr %1, ptr %7, align 8, !tbaa !8
  store i64 %2, ptr %8, align 8, !tbaa !4
  store i64 %3, ptr %9, align 8, !tbaa !4
  br label %18

18:                                               ; preds = %46, %4
  call void @llvm.lifetime.start.p0(i64 1, ptr %10) #7
  %19 = load i64, ptr %8, align 8, !tbaa !4
  %20 = load i64, ptr %9, align 8, !tbaa !4
  %21 = call zeroext i8 @lean_usize_dec_eq(i64 noundef %19, i64 noundef %20)
  store i8 %21, ptr %10, align 1, !tbaa !10
  %22 = load i8, ptr %10, align 1, !tbaa !10
  %23 = zext i8 %22 to i32
  %24 = icmp eq i32 %23, 0
  br i1 %24, label %25, label %44

25:                                               ; preds = %18
  call void @llvm.lifetime.start.p0(i64 8, ptr %11) #7
  call void @llvm.lifetime.start.p0(i64 1, ptr %12) #7
  %26 = load ptr, ptr %7, align 8, !tbaa !8
  %27 = load i64, ptr %8, align 8, !tbaa !4
  %28 = call ptr @lean_array_uget(ptr noundef %26, i64 noundef %27)
  store ptr %28, ptr %11, align 8, !tbaa !8
  %29 = load ptr, ptr %6, align 8, !tbaa !8
  %30 = load ptr, ptr %11, align 8, !tbaa !8
  %31 = call zeroext i8 @lean_name_eq(ptr noundef %29, ptr noundef %30)
  store i8 %31, ptr %12, align 1, !tbaa !10
  %32 = load ptr, ptr %11, align 8, !tbaa !8
  call void @lean_dec(ptr noundef %32)
  %33 = load i8, ptr %12, align 1, !tbaa !10
  %34 = zext i8 %33 to i32
  %35 = icmp eq i32 %34, 0
  br i1 %35, label %36, label %41

36:                                               ; preds = %25
  call void @llvm.lifetime.start.p0(i64 8, ptr %13) #7
  call void @llvm.lifetime.start.p0(i64 8, ptr %14) #7
  store i64 1, ptr %13, align 8, !tbaa !4
  %37 = load i64, ptr %8, align 8, !tbaa !4
  %38 = load i64, ptr %13, align 8, !tbaa !4
  %39 = call i64 @lean_usize_add(i64 noundef %37, i64 noundef %38)
  store i64 %39, ptr %14, align 8, !tbaa !4
  %40 = load i64, ptr %14, align 8, !tbaa !4
  store i64 %40, ptr %8, align 8, !tbaa !4
  store i32 2, ptr %15, align 4
  call void @llvm.lifetime.end.p0(i64 8, ptr %14) #7
  call void @llvm.lifetime.end.p0(i64 8, ptr %13) #7
  br label %43

41:                                               ; preds = %25
  call void @llvm.lifetime.start.p0(i64 1, ptr %16) #7
  store i8 1, ptr %16, align 1, !tbaa !10
  %42 = load i8, ptr %16, align 1, !tbaa !10
  store i8 %42, ptr %5, align 1
  store i32 1, ptr %15, align 4
  call void @llvm.lifetime.end.p0(i64 1, ptr %16) #7
  br label %43

43:                                               ; preds = %41, %36
  call void @llvm.lifetime.end.p0(i64 1, ptr %12) #7
  call void @llvm.lifetime.end.p0(i64 8, ptr %11) #7
  br label %46

44:                                               ; preds = %18
  call void @llvm.lifetime.start.p0(i64 1, ptr %17) #7
  store i8 0, ptr %17, align 1, !tbaa !10
  %45 = load i8, ptr %17, align 1, !tbaa !10
  store i8 %45, ptr %5, align 1
  store i32 1, ptr %15, align 4
  call void @llvm.lifetime.end.p0(i64 1, ptr %17) #7
  br label %46

46:                                               ; preds = %44, %43
  call void @llvm.lifetime.end.p0(i64 1, ptr %10) #7
  %47 = load i32, ptr %15, align 4
  switch i32 %47, label %50 [
    i32 2, label %18
    i32 1, label %48
  ]

48:                                               ; preds = %46
  %49 = load i8, ptr %5, align 1
  ret i8 %49

50:                                               ; preds = %46
  unreachable
}

; Function Attrs: inlinehint nounwind uwtable
define internal i64 @lean_usize_of_nat(ptr noundef %0) #0 {
  %2 = alloca ptr, align 8
  store ptr %0, ptr %2, align 8, !tbaa !8
  %3 = load ptr, ptr %2, align 8, !tbaa !8
  %4 = call zeroext i1 @lean_is_scalar(ptr noundef %3)
  br i1 %4, label %5, label %8

5:                                                ; preds = %1
  %6 = load ptr, ptr %2, align 8, !tbaa !8
  %7 = call i64 @lean_unbox(ptr noundef %6)
  br label %11

8:                                                ; preds = %1
  %9 = load ptr, ptr %2, align 8, !tbaa !8
  %10 = call i64 @lean_usize_of_big_nat(ptr noundef %9)
  br label %11

11:                                               ; preds = %8, %5
  %12 = phi i64 [ %7, %5 ], [ %10, %8 ]
  ret i64 %12
}

; Function Attrs: alwaysinline nounwind uwtable
define internal void @lean_dec(ptr noundef %0) #1 {
  %2 = alloca ptr, align 8
  store ptr %0, ptr %2, align 8, !tbaa !8
  %3 = load ptr, ptr %2, align 8, !tbaa !8
  %4 = call zeroext i1 @lean_is_scalar(ptr noundef %3)
  br i1 %4, label %7, label %5

5:                                                ; preds = %1
  %6 = load ptr, ptr %2, align 8, !tbaa !8
  call void @lean_dec_ref(ptr noundef %6)
  br label %7

7:                                                ; preds = %5, %1
  ret void
}

; Function Attrs: alwaysinline nounwind uwtable
define internal zeroext i8 @lean_nat_dec_lt(ptr noundef %0, ptr noundef %1) #1 {
  %3 = alloca ptr, align 8
  %4 = alloca ptr, align 8
  store ptr %0, ptr %3, align 8, !tbaa !8
  store ptr %1, ptr %4, align 8, !tbaa !8
  %5 = load ptr, ptr %3, align 8, !tbaa !8
  %6 = load ptr, ptr %4, align 8, !tbaa !8
  %7 = call zeroext i1 @lean_nat_lt(ptr noundef %5, ptr noundef %6)
  %8 = zext i1 %7 to i8
  ret i8 %8
}

; Function Attrs: inlinehint nounwind uwtable
define internal ptr @lean_unsigned_to_nat(i32 noundef %0) #0 {
  %2 = alloca i32, align 4
  store i32 %0, ptr %2, align 4, !tbaa !14
  %3 = load i32, ptr %2, align 4, !tbaa !14
  %4 = zext i32 %3 to i64
  %5 = call ptr @lean_usize_to_nat(i64 noundef %4)
  ret ptr %5
}

; Function Attrs: inlinehint nounwind uwtable
define internal ptr @lean_array_get_size(ptr noundef %0) #0 {
  %2 = alloca ptr, align 8
  store ptr %0, ptr %2, align 8, !tbaa !8
  %3 = load ptr, ptr %2, align 8, !tbaa !8
  %4 = call i64 @lean_array_size(ptr noundef %3)
  %5 = call ptr @lean_box(i64 noundef %4)
  ret ptr %5
}

; Function Attrs: nounwind uwtable
define zeroext i8 @l_Array_contains___at_Lean_registerInternalExceptionId___spec__1(ptr noundef %0, ptr noundef %1) #2 {
  %3 = alloca i8, align 1
  %4 = alloca ptr, align 8
  %5 = alloca ptr, align 8
  %6 = alloca ptr, align 8
  %7 = alloca ptr, align 8
  %8 = alloca i8, align 1
  %9 = alloca i8, align 1
  %10 = alloca i32, align 4
  %11 = alloca i64, align 8
  %12 = alloca i64, align 8
  %13 = alloca i8, align 1
  store ptr %0, ptr %4, align 8, !tbaa !8
  store ptr %1, ptr %5, align 8, !tbaa !8
  br label %14

14:                                               ; preds = %2
  call void @llvm.lifetime.start.p0(i64 8, ptr %6) #7
  call void @llvm.lifetime.start.p0(i64 8, ptr %7) #7
  call void @llvm.lifetime.start.p0(i64 1, ptr %8) #7
  %15 = load ptr, ptr %4, align 8, !tbaa !8
  %16 = call ptr @lean_array_get_size(ptr noundef %15)
  store ptr %16, ptr %6, align 8, !tbaa !8
  %17 = call ptr @lean_unsigned_to_nat(i32 noundef 0)
  store ptr %17, ptr %7, align 8, !tbaa !8
  %18 = load ptr, ptr %7, align 8, !tbaa !8
  %19 = load ptr, ptr %6, align 8, !tbaa !8
  %20 = call zeroext i8 @lean_nat_dec_lt(ptr noundef %18, ptr noundef %19)
  store i8 %20, ptr %8, align 1, !tbaa !10
  %21 = load i8, ptr %8, align 1, !tbaa !10
  %22 = zext i8 %21 to i32
  %23 = icmp eq i32 %22, 0
  br i1 %23, label %24, label %27

24:                                               ; preds = %14
  call void @llvm.lifetime.start.p0(i64 1, ptr %9) #7
  %25 = load ptr, ptr %6, align 8, !tbaa !8
  call void @lean_dec(ptr noundef %25)
  store i8 0, ptr %9, align 1, !tbaa !10
  %26 = load i8, ptr %9, align 1, !tbaa !10
  store i8 %26, ptr %3, align 1
  store i32 1, ptr %10, align 4
  call void @llvm.lifetime.end.p0(i64 1, ptr %9) #7
  br label %37

27:                                               ; preds = %14
  call void @llvm.lifetime.start.p0(i64 8, ptr %11) #7
  call void @llvm.lifetime.start.p0(i64 8, ptr %12) #7
  call void @llvm.lifetime.start.p0(i64 1, ptr %13) #7
  store i64 0, ptr %11, align 8, !tbaa !4
  %28 = load ptr, ptr %6, align 8, !tbaa !8
  %29 = call i64 @lean_usize_of_nat(ptr noundef %28)
  store i64 %29, ptr %12, align 8, !tbaa !4
  %30 = load ptr, ptr %6, align 8, !tbaa !8
  call void @lean_dec(ptr noundef %30)
  %31 = load ptr, ptr %5, align 8, !tbaa !8
  %32 = load ptr, ptr %4, align 8, !tbaa !8
  %33 = load i64, ptr %11, align 8, !tbaa !4
  %34 = load i64, ptr %12, align 8, !tbaa !4
  %35 = call zeroext i8 @l_Array_anyMUnsafe_any___at_Lean_registerInternalExceptionId___spec__2(ptr noundef %31, ptr noundef %32, i64 noundef %33, i64 noundef %34)
  store i8 %35, ptr %13, align 1, !tbaa !10
  %36 = load i8, ptr %13, align 1, !tbaa !10
  store i8 %36, ptr %3, align 1
  store i32 1, ptr %10, align 4
  call void @llvm.lifetime.end.p0(i64 1, ptr %13) #7
  call void @llvm.lifetime.end.p0(i64 8, ptr %12) #7
  call void @llvm.lifetime.end.p0(i64 8, ptr %11) #7
  br label %37

37:                                               ; preds = %27, %24
  call void @llvm.lifetime.end.p0(i64 1, ptr %8) #7
  call void @llvm.lifetime.end.p0(i64 8, ptr %7) #7
  call void @llvm.lifetime.end.p0(i64 8, ptr %6) #7
  %38 = load i8, ptr %3, align 1
  ret i8 %38
}